target datalayout = "e-m:e-p270:32:32-p271:32:32-p272:64:64-i64:64-i128:128-f80:128-n8:16:32:64-S128"
target triple = "x86_64-pc-linux-gnu"

%struct.rb_data_type_struct = type { ptr, %struct.anon.19, ptr, ptr, i64 }
%struct.anon.19 = type { ptr, ptr, ptr, ptr, [1 x ptr] }
%union.pthread_mutex_t = type { %struct.__pthread_mutex_s }
%struct.__pthread_mutex_s = type { i32, i32, i32, i32, i32, i16, i16, %struct.__pthread_internal_list }
%struct.__pthread_internal_list = type { ptr, ptr }
%struct.ccan_list_head = type { %struct.ccan_list_node }
%struct.ccan_list_node = type { ptr, ptr }
%union.pthread_cond_t = type { %struct.__pthread_cond_s }
%struct.__pthread_cond_s = type { %union.__atomic_wide_counter, %union.__atomic_wide_counter, [2 x i32], [2 x i32], i32, i32, [2 x i32] }
%union.__atomic_wide_counter = type { i64 }
%struct.rb_vm_struct = type { i64, %struct.anon.0, ptr, i64, %struct.ccan_list_head, i32, i8, i64, ptr, [5 x i64], i64, i64, i64, i64, i64, i64, i64, i64, i64, ptr, ptr, ptr, %struct.anon.4, ptr, i32, %struct.ccan_list_head, %union.pthread_mutex_t, i64, i64, i64, i64, i32, %struct.anon.5, ptr, ptr, ptr, ptr, ptr, ptr, ptr, ptr, i64, [1023 x ptr], %struct.anon.6 }
%struct.anon.0 = type { %struct.ccan_list_head, i32, i32, ptr, ptr, %struct.anon.1, %struct.anon.3 }
%struct.anon.1 = type { %union.pthread_mutex_t, ptr, i32, %union.pthread_cond_t, i8 }
%struct.anon.3 = type { %union.pthread_mutex_t, ptr, i8, %union.pthread_cond_t, i32, i32, i32, i32, %struct.ccan_list_head, i32, %struct.ccan_list_head, %struct.ccan_list_head, %struct.ccan_list_head, i8, %union.pthread_cond_t, %union.pthread_cond_t, i8, i32, i32 }
%struct.anon.4 = type { [65 x i64] }
%struct.anon.5 = type { ptr, ptr }
%struct.anon.6 = type { i64, i64, i64, i64 }
%struct.rb_condvar = type { %struct.ccan_list_head, i64 }

@ruby_current_vm_ptr = external global ptr, align 8
@cv_data_type = internal constant %struct.rb_data_type_struct { ptr @.str.287, %struct.anon.19 { ptr null, ptr inttoptr (i64 -1 to ptr), ptr @condvar_memsize, ptr null, [1 x ptr] zeroinitializer }, ptr null, ptr null, i64 33 }, align 8

; Function Attrs: inlinehint nounwind sspstrong uwtable
define internal void @ccan_list_head_init(ptr noundef %0) #1 {
  %2 = alloca ptr, align 8
  store ptr %0, ptr %2, align 8, !tbaa !57
  %3 = load ptr, ptr %2, align 8, !tbaa !57
  %4 = getelementptr inbounds nuw %struct.ccan_list_head, ptr %3, i32 0, i32 0
  %5 = load ptr, ptr %2, align 8, !tbaa !57
  %6 = getelementptr inbounds nuw %struct.ccan_list_head, ptr %5, i32 0, i32 0
  %7 = getelementptr inbounds nuw %struct.ccan_list_node, ptr %6, i32 0, i32 1
  store ptr %4, ptr %7, align 8, !tbaa !59
  %8 = load ptr, ptr %2, align 8, !tbaa !57
  %9 = getelementptr inbounds nuw %struct.ccan_list_head, ptr %8, i32 0, i32 0
  %10 = getelementptr inbounds nuw %struct.ccan_list_node, ptr %9, i32 0, i32 0
  store ptr %4, ptr %10, align 8, !tbaa !60
  ret void
}

; Function Attrs: inlinehint nounwind sspstrong uwtable
define internal ptr @rb_current_vm() #1 {
  %1 = load ptr, ptr @ruby_current_vm_ptr, align 8, !tbaa !50
  ret ptr %1
}

; Function Attrs: nounwind sspstrong uwtable
define internal void @wakeup_all(ptr noundef %0) #0 {
  %2 = alloca ptr, align 8
  store ptr %0, ptr %2, align 8, !tbaa !57
  %3 = load ptr, ptr %2, align 8, !tbaa !57
  call void @sync_wakeup(ptr noundef %3, i64 noundef 9223372036854775807)
  ret void
}

; Function Attrs: nounwind sspstrong uwtable
define internal ptr @condvar_ptr(i64 noundef %0) #0 {
  %2 = alloca i64, align 8
  %3 = alloca ptr, align 8
  %4 = alloca i64, align 8
  store i64 %0, ptr %2, align 8, !tbaa !22
  call void @llvm.lifetime.start.p0(i64 8, ptr %3) #16
  call void @llvm.lifetime.start.p0(i64 8, ptr %4) #16
  %5 = call ptr @rb_current_vm()
  %6 = getelementptr inbounds nuw %struct.rb_vm_struct, ptr %5, i32 0, i32 3
  %7 = load i64, ptr %6, align 8, !tbaa !360
  store i64 %7, ptr %4, align 8, !tbaa !170
  %8 = load i64, ptr %2, align 8, !tbaa !22
  %9 = call ptr @rb_check_typeddata(i64 noundef %8, ptr noundef @cv_data_type)
  store ptr %9, ptr %3, align 8, !tbaa !550
  %10 = load ptr, ptr %3, align 8, !tbaa !550
  %11 = getelementptr inbounds nuw %struct.rb_condvar, ptr %10, i32 0, i32 1
  %12 = load i64, ptr %11, align 8, !tbaa !557
  %13 = load i64, ptr %4, align 8, !tbaa !170
  %14 = icmp ne i64 %12, %13
  br i1 %14, label %15, label %21

15:                                               ; preds = %1
  %16 = load i64, ptr %4, align 8, !tbaa !170
  %17 = load ptr, ptr %3, align 8, !tbaa !550
  %18 = getelementptr inbounds nuw %struct.rb_condvar, ptr %17, i32 0, i32 1
  store i64 %16, ptr %18, align 8, !tbaa !557
  %19 = load ptr, ptr %3, align 8, !tbaa !550
  %20 = getelementptr inbounds nuw %struct.rb_condvar, ptr %19, i32 0, i32 0
  call void @ccan_list_head_init(ptr noundef %20)
  br label %21

21:                                               ; preds = %15, %1
  %22 = load ptr, ptr %3, align 8, !tbaa !550
  call void @llvm.lifetime.end.p0(i64 8, ptr %4) #16
  call void @llvm.lifetime.end.p0(i64 8, ptr %3) #16
  ret ptr %22
}

; Function Attrs: nounwind sspstrong uwtable
define internal i64 @rb_condvar_broadcast(i64 noundef %0) #0 {
  %2 = alloca i64, align 8
  %3 = alloca ptr, align 8
  store i64 %0, ptr %2, align 8, !tbaa !22
  call void @llvm.lifetime.start.p0(i64 8, ptr %3) #16
  %4 = load i64, ptr %2, align 8, !tbaa !22
  %5 = call ptr @condvar_ptr(i64 noundef %4)
  store ptr %5, ptr %3, align 8, !tbaa !550
  %6 = load ptr, ptr %3, align 8, !tbaa !550
  %7 = getelementptr inbounds nuw %struct.rb_condvar, ptr %6, i32 0, i32 0
  call void @wakeup_all(ptr noundef %7)
  %8 = load i64, ptr %2, align 8, !tbaa !22
  call void @llvm.lifetime.end.p0(i64 8, ptr %3) #16
  ret i64 %8
}